; Function Attrs: mustprogress uwtable
define hidden void @_ZNK2cv11MatOp_AddEx8subtractERKNS_7Scalar_IdEERKNS_7MatExprERS5_(ptr nocapture nonnull readnone align 8 %0, ptr nocapture noundef nonnull readonly align 8 dereferenceable(32) %1, ptr noundef nonnull align 8 dereferenceable(352) %2, ptr noundef nonnull align 8 dereferenceable(352) %3) unnamed_addr #8 align 2 personality ptr @__gxx_personality_v0 {
  %5 = alloca %"class.cv::utils::trace::details::Region", align 8
  call void @_ZN2cv5utils5trace7details6RegionC1ERKNS3_21LocationStaticStorageE(ptr noundef nonnull align 8 dereferenceable(12) %5, ptr noundef nonnull align 8 dereferenceable(32) @_ZZNK2cv11MatOp_AddEx8subtractERKNS_7Scalar_IdEERKNS_7MatExprERS5_E26__cv_trace_location_fn1364)
  call void @llvm.memcpy.p0.p0.i64(ptr noundef nonnull align 8 dereferenceable(12) %3, ptr noundef nonnull align 8 dereferenceable(12) %2, i64 12, i1 false)
  %6 = getelementptr inbounds i8, ptr %3, i64 16
  %7 = getelementptr inbounds i8, ptr %2, i64 16
  %8 = invoke noundef nonnull align 8 dereferenceable(96) ptr @_ZN2cv3MataSERKS0_(ptr noundef nonnull align 8 dereferenceable(96) %6, ptr noundef nonnull align 8 dereferenceable(96) %7)
          to label %.noexc unwind label %47

.noexc:                                           ; preds = %4
  %9 = getelementptr inbounds i8, ptr %3, i64 112
  %10 = getelementptr inbounds i8, ptr %2, i64 112
  %11 = invoke noundef nonnull align 8 dereferenceable(96) ptr @_ZN2cv3MataSERKS0_(ptr noundef nonnull align 8 dereferenceable(96) %9, ptr noundef nonnull align 8 dereferenceable(96) %10)
          to label %.noexc10 unwind label %47

.noexc10:                                         ; preds = %.noexc
  %12 = getelementptr inbounds i8, ptr %3, i64 208
  %13 = getelementptr inbounds i8, ptr %2, i64 208
  %14 = invoke noundef nonnull align 8 dereferenceable(96) ptr @_ZN2cv3MataSERKS0_(ptr noundef nonnull align 8 dereferenceable(96) %12, ptr noundef nonnull align 8 dereferenceable(96) %13)
          to label %15 unwind label %47

15:                                               ; preds = %.noexc10
  %16 = getelementptr inbounds i8, ptr %3, i64 304
  %17 = getelementptr inbounds i8, ptr %2, i64 304
  call void @llvm.memcpy.p0.p0.i64(ptr noundef nonnull align 8 dereferenceable(16) %16, ptr noundef nonnull align 8 dereferenceable(16) %17, i64 16, i1 false)
  %18 = getelementptr inbounds i8, ptr %3, i64 320
  %19 = getelementptr inbounds i8, ptr %2, i64 320
  %20 = getelementptr inbounds i8, ptr %2, i64 328
  %21 = getelementptr inbounds i8, ptr %3, i64 328
  %22 = getelementptr inbounds i8, ptr %2, i64 336
  %23 = getelementptr inbounds i8, ptr %3, i64 336
  %24 = getelementptr inbounds i8, ptr %2, i64 344
  %25 = getelementptr inbounds i8, ptr %3, i64 344
  %26 = load <2 x double>, ptr %16, align 8
  %27 = fneg <2 x double> %26
  %28 = getelementptr inbounds i8, ptr %1, i64 16
  %29 = load double, ptr %19, align 8
  store double %29, ptr %18, align 8
  %30 = load double, ptr %20, align 8
  store double %30, ptr %21, align 8
  %31 = insertelement <2 x double> poison, double %29, i64 0
  %32 = insertelement <2 x double> %31, double %30, i64 1
  %33 = load double, ptr %22, align 8
  store double %33, ptr %23, align 8
  %34 = load double, ptr %24, align 8
  store double %34, ptr %25, align 8
  store <2 x double> %27, ptr %16, align 8
  %35 = load <2 x double>, ptr %1, align 8, !noalias !29
  %36 = fsub <2 x double> %35, %32
  %37 = load <2 x double>, ptr %28, align 8, !noalias !29
  %38 = insertelement <2 x double> poison, double %33, i64 0
  %39 = insertelement <2 x double> %38, double %34, i64 1
  %40 = fsub <2 x double> %37, %39
  store <2 x double> %36, ptr %18, align 8
  store <2 x double> %40, ptr %23, align 8
  %41 = getelementptr inbounds i8, ptr %5, i64 8
  %42 = load i32, ptr %41, align 8
  %.not.i = icmp eq i32 %42, 0
  br i1 %.not.i, label %_ZN2cv5utils5trace7details6RegionD2Ev.exit, label %43

43:                                               ; preds = %15
  invoke void @_ZN2cv5utils5trace7details6Region7destroyEv(ptr noundef nonnull align 8 dereferenceable(12) %5)
          to label %_ZN2cv5utils5trace7details6RegionD2Ev.exit unwind label %44

44:                                               ; preds = %43
  %45 = landingpad { ptr, i32 }
          catch ptr null
  %46 = extractvalue { ptr, i32 } %45, 0
  call void @__clang_call_terminate(ptr %46) #20
  unreachable

_ZN2cv5utils5trace7details6RegionD2Ev.exit:       ; preds = %15, %43
  ret void

47:                                               ; preds = %.noexc10, %.noexc, %4
  %48 = landingpad { ptr, i32 }
          cleanup
  call void @_ZN2cv5utils5trace7details6RegionD2Ev(ptr noundef nonnull align 8 dereferenceable(12) %5) #21
  resume { ptr, i32 } %48
}